; Function Attrs: mustprogress uwtable
define void @_ZN3gmx24CommandLineModuleManagerC2EPKcPNS_25CommandLineProgramContextE(ptr nocapture noundef nonnull writeonly align 8 dereferenceable(8) %0, ptr noundef %1, ptr noundef %2) unnamed_addr #0 align 2 personality ptr @__gxx_personality_v0 {
  %4 = tail call noalias noundef nonnull dereferenceable(136) ptr @_Znwm(i64 noundef 136) #25
  invoke void @_ZN3gmx24CommandLineModuleManager4ImplC1EPKcPNS_25CommandLineProgramContextE(ptr noundef nonnull align 8 dereferenceable(129) %4, ptr noundef %1, ptr noundef %2)
          to label %5 unwind label %6

5:                                                ; preds = %3
  store ptr %4, ptr %0, align 8
  ret void

6:                                                ; preds = %3
  %7 = landingpad { ptr, i32 }
          cleanup
  tail call void @_ZdlPv(ptr noundef nonnull %4) #23
  resume { ptr, i32 } %7
}